target datalayout = "e-m:e-p270:32:32-p271:32:32-p272:64:64-i64:64-i128:128-f80:128-n8:16:32:64-S128"
target triple = "x86_64-pc-linux-gnu"

%struct.DdManager = type { %struct.DdNode, ptr, ptr, ptr, ptr, ptr, ptr, ptr, i32, i32, double, double, double, i32, i32, i32, i32, i32, i32, ptr, ptr, %struct.DdSubtable, i32, i32, i32, i32, i32, i32, i32, double, i32, i32, i32, ptr, i64, double, i32, ptr, ptr, ptr, ptr, ptr, ptr, ptr, i32, ptr, ptr, ptr, ptr, ptr, ptr, i32, i32, i32, double, i32, i32, i32, i32, double, double, i32, i32, i32, i32, i32, i32, i32, i32, i32, ptr, ptr, i32, i32, i32, i32, i32, i32, ptr, ptr, ptr, ptr, ptr, ptr, ptr, ptr, i32, i64, i64, i64, i32, i64, i64, double, double, double, double, double, double, i32, ptr, ptr, i64 }
%struct.DdNode = type { i32, i32, ptr, %union.anon, i64 }
%union.anon = type { %struct.DdChildren }
%struct.DdChildren = type { ptr, ptr }
%struct.DdSubtable = type { ptr, i32, i32, i32, i32, i32, i32, i32, i32, i32, i32, i32 }
%struct.Move = type { i32, i32, i32, i32, ptr }

; Function Attrs: nounwind uwtable
define internal i32 @zddGroupSiftingDown(ptr noundef %0, i32 noundef %1, i32 noundef %2, ptr noundef %3) #0 {
  %5 = alloca i32, align 4
  %6 = alloca ptr, align 8
  %7 = alloca i32, align 4
  %8 = alloca i32, align 4
  %9 = alloca ptr, align 8
  %10 = alloca ptr, align 8
  %11 = alloca i32, align 4
  %12 = alloca i32, align 4
  %13 = alloca i32, align 4
  %14 = alloca i32, align 4
  %15 = alloca i32, align 4
  store ptr %0, ptr %6, align 8, !tbaa !3
  store i32 %1, ptr %7, align 4, !tbaa !8
  store i32 %2, ptr %8, align 4, !tbaa !8
  store ptr %3, ptr %9, align 8, !tbaa !70
  call void @llvm.lifetime.start.p0(i64 8, ptr %10) #5
  call void @llvm.lifetime.start.p0(i64 4, ptr %11) #5
  call void @llvm.lifetime.start.p0(i64 4, ptr %12) #5
  call void @llvm.lifetime.start.p0(i64 4, ptr %13) #5
  call void @llvm.lifetime.start.p0(i64 4, ptr %14) #5
  %16 = load ptr, ptr %6, align 8, !tbaa !3
  %17 = getelementptr inbounds nuw %struct.DdManager, ptr %16, i32 0, i32 24
  %18 = load i32, ptr %17, align 8, !tbaa !42
  store i32 %18, ptr %12, align 4, !tbaa !8
  store i32 %18, ptr %13, align 4, !tbaa !8
  %19 = load ptr, ptr %6, align 8, !tbaa !3
  %20 = load i32, ptr %7, align 4, !tbaa !8
  %21 = call i32 @cuddZddNextHigh(ptr noundef %19, i32 noundef %20)
  store i32 %21, ptr %11, align 4, !tbaa !8
  br label %22

22:                                               ; preds = %157, %4
  %23 = load i32, ptr %11, align 4, !tbaa !8
  %24 = load i32, ptr %8, align 4, !tbaa !8
  %25 = icmp sle i32 %23, %24
  br i1 %25, label %26, label %162

26:                                               ; preds = %22
  %27 = load ptr, ptr %6, align 8, !tbaa !3
  %28 = getelementptr inbounds nuw %struct.DdManager, ptr %27, i32 0, i32 20
  %29 = load ptr, ptr %28, align 8, !tbaa !34
  %30 = load i32, ptr %11, align 4, !tbaa !8
  %31 = sext i32 %30 to i64
  %32 = getelementptr inbounds %struct.DdSubtable, ptr %29, i64 %31
  %33 = getelementptr inbounds nuw %struct.DdSubtable, ptr %32, i32 0, i32 6
  %34 = load i32, ptr %33, align 4, !tbaa !35
  store i32 %34, ptr %14, align 4, !tbaa !8
  br label %35

35:                                               ; preds = %46, %26
  %36 = load ptr, ptr %6, align 8, !tbaa !3
  %37 = getelementptr inbounds nuw %struct.DdManager, ptr %36, i32 0, i32 20
  %38 = load ptr, ptr %37, align 8, !tbaa !34
  %39 = load i32, ptr %14, align 4, !tbaa !8
  %40 = sext i32 %39 to i64
  %41 = getelementptr inbounds %struct.DdSubtable, ptr %38, i64 %40
  %42 = getelementptr inbounds nuw %struct.DdSubtable, ptr %41, i32 0, i32 6
  %43 = load i32, ptr %42, align 4, !tbaa !35
  %44 = load i32, ptr %11, align 4, !tbaa !8
  %45 = icmp ne i32 %43, %44
  br i1 %45, label %46, label %55

46:                                               ; preds = %35
  %47 = load ptr, ptr %6, align 8, !tbaa !3
  %48 = getelementptr inbounds nuw %struct.DdManager, ptr %47, i32 0, i32 20
  %49 = load ptr, ptr %48, align 8, !tbaa !34
  %50 = load i32, ptr %14, align 4, !tbaa !8
  %51 = sext i32 %50 to i64
  %52 = getelementptr inbounds %struct.DdSubtable, ptr %49, i64 %51
  %53 = getelementptr inbounds nuw %struct.DdSubtable, ptr %52, i32 0, i32 6
  %54 = load i32, ptr %53, align 4, !tbaa !35
  store i32 %54, ptr %14, align 4, !tbaa !8
  br label %35, !llvm.loop !72

55:                                               ; preds = %35
  %56 = load ptr, ptr %6, align 8, !tbaa !3
  %57 = getelementptr inbounds nuw %struct.DdManager, ptr %56, i32 0, i32 20
  %58 = load ptr, ptr %57, align 8, !tbaa !34
  %59 = load i32, ptr %7, align 4, !tbaa !8
  %60 = sext i32 %59 to i64
  %61 = getelementptr inbounds %struct.DdSubtable, ptr %58, i64 %60
  %62 = getelementptr inbounds nuw %struct.DdSubtable, ptr %61, i32 0, i32 6
  %63 = load i32, ptr %62, align 4, !tbaa !35
  %64 = load i32, ptr %7, align 4, !tbaa !8
  %65 = icmp eq i32 %63, %64
  br i1 %65, label %66, label %130

66:                                               ; preds = %55
  %67 = load ptr, ptr %6, align 8, !tbaa !3
  %68 = getelementptr inbounds nuw %struct.DdManager, ptr %67, i32 0, i32 20
  %69 = load ptr, ptr %68, align 8, !tbaa !34
  %70 = load i32, ptr %11, align 4, !tbaa !8
  %71 = sext i32 %70 to i64
  %72 = getelementptr inbounds %struct.DdSubtable, ptr %69, i64 %71
  %73 = getelementptr inbounds nuw %struct.DdSubtable, ptr %72, i32 0, i32 6
  %74 = load i32, ptr %73, align 4, !tbaa !35
  %75 = load i32, ptr %11, align 4, !tbaa !8
  %76 = icmp eq i32 %74, %75
  br i1 %76, label %77, label %130

77:                                               ; preds = %66
  %78 = load ptr, ptr %6, align 8, !tbaa !3
  %79 = load i32, ptr %7, align 4, !tbaa !8
  %80 = load i32, ptr %11, align 4, !tbaa !8
  %81 = call i32 @cuddZddSwapInPlace(ptr noundef %78, i32 noundef %79, i32 noundef %80)
  store i32 %81, ptr %12, align 4, !tbaa !8
  %82 = load i32, ptr %12, align 4, !tbaa !8
  %83 = icmp eq i32 %82, 0
  br i1 %83, label %84, label %85

84:                                               ; preds = %77
  br label %163

85:                                               ; preds = %77
  %86 = load ptr, ptr %6, align 8, !tbaa !3
  %87 = call ptr @cuddDynamicAllocNode(ptr noundef %86)
  store ptr %87, ptr %10, align 8, !tbaa !57
  %88 = load ptr, ptr %10, align 8, !tbaa !57
  %89 = icmp eq ptr %88, null
  br i1 %89, label %90, label %91

90:                                               ; preds = %85
  br label %163

91:                                               ; preds = %85
  %92 = load i32, ptr %7, align 4, !tbaa !8
  %93 = load ptr, ptr %10, align 8, !tbaa !57
  %94 = getelementptr inbounds nuw %struct.Move, ptr %93, i32 0, i32 0
  store i32 %92, ptr %94, align 8, !tbaa !62
  %95 = load i32, ptr %11, align 4, !tbaa !8
  %96 = load ptr, ptr %10, align 8, !tbaa !57
  %97 = getelementptr inbounds nuw %struct.Move, ptr %96, i32 0, i32 1
  store i32 %95, ptr %97, align 4, !tbaa !59
  %98 = load ptr, ptr %10, align 8, !tbaa !57
  %99 = getelementptr inbounds nuw %struct.Move, ptr %98, i32 0, i32 2
  store i32 0, ptr %99, align 8, !tbaa !73
  %100 = load i32, ptr %12, align 4, !tbaa !8
  %101 = load ptr, ptr %10, align 8, !tbaa !57
  %102 = getelementptr inbounds nuw %struct.Move, ptr %101, i32 0, i32 3
  store i32 %100, ptr %102, align 4, !tbaa !74
  %103 = load ptr, ptr %9, align 8, !tbaa !70
  %104 = load ptr, ptr %103, align 8, !tbaa !57
  %105 = load ptr, ptr %10, align 8, !tbaa !57
  %106 = getelementptr inbounds nuw %struct.Move, ptr %105, i32 0, i32 4
  store ptr %104, ptr %106, align 8, !tbaa !64
  %107 = load ptr, ptr %10, align 8, !tbaa !57
  %108 = load ptr, ptr %9, align 8, !tbaa !70
  store ptr %107, ptr %108, align 8, !tbaa !57
  %109 = load i32, ptr %12, align 4, !tbaa !8
  %110 = sitofp i32 %109 to double
  %111 = load i32, ptr %13, align 4, !tbaa !8
  %112 = sitofp i32 %111 to double
  %113 = load ptr, ptr %6, align 8, !tbaa !3
  %114 = getelementptr inbounds nuw %struct.DdManager, ptr %113, i32 0, i32 59
  %115 = load double, ptr %114, align 8, !tbaa !75
  %116 = fmul double %112, %115
  %117 = fcmp ogt double %110, %116
  br i1 %117, label %118, label %119

118:                                              ; preds = %91
  store i32 1, ptr %5, align 4
  store i32 1, ptr %15, align 4
  br label %189

119:                                              ; preds = %91
  %120 = load i32, ptr %12, align 4, !tbaa !8
  %121 = load i32, ptr %13, align 4, !tbaa !8
  %122 = icmp slt i32 %120, %121
  br i1 %122, label %123, label %125

123:                                              ; preds = %119
  %124 = load i32, ptr %12, align 4, !tbaa !8
  store i32 %124, ptr %13, align 4, !tbaa !8
  br label %125

125:                                              ; preds = %123, %119
  %126 = load i32, ptr %11, align 4, !tbaa !8
  store i32 %126, ptr %7, align 4, !tbaa !8
  %127 = load ptr, ptr %6, align 8, !tbaa !3
  %128 = load i32, ptr %7, align 4, !tbaa !8
  %129 = call i32 @cuddZddNextHigh(ptr noundef %127, i32 noundef %128)
  store i32 %129, ptr %11, align 4, !tbaa !8
  br label %157

130:                                              ; preds = %66, %55
  %131 = load ptr, ptr %6, align 8, !tbaa !3
  %132 = load i32, ptr %7, align 4, !tbaa !8
  %133 = load i32, ptr %11, align 4, !tbaa !8
  %134 = load ptr, ptr %9, align 8, !tbaa !70
  %135 = call i32 @zddGroupMove(ptr noundef %131, i32 noundef %132, i32 noundef %133, ptr noundef %134)
  store i32 %135, ptr %12, align 4, !tbaa !8
  %136 = load i32, ptr %12, align 4, !tbaa !8
  %137 = icmp eq i32 %136, 0
  br i1 %137, label %138, label %139

138:                                              ; preds = %130
  br label %163

139:                                              ; preds = %130
  %140 = load i32, ptr %12, align 4, !tbaa !8
  %141 = sitofp i32 %140 to double
  %142 = load i32, ptr %13, align 4, !tbaa !8
  %143 = sitofp i32 %142 to double
  %144 = load ptr, ptr %6, align 8, !tbaa !3
  %145 = getelementptr inbounds nuw %struct.DdManager, ptr %144, i32 0, i32 59
  %146 = load double, ptr %145, align 8, !tbaa !75
  %147 = fmul double %143, %146
  %148 = fcmp ogt double %141, %147
  br i1 %148, label %149, label %150

149:                                              ; preds = %139
  store i32 1, ptr %5, align 4
  store i32 1, ptr %15, align 4
  br label %189

150:                                              ; preds = %139
  %151 = load i32, ptr %12, align 4, !tbaa !8
  %152 = load i32, ptr %13, align 4, !tbaa !8
  %153 = icmp slt i32 %151, %152
  br i1 %153, label %154, label %156

154:                                              ; preds = %150
  %155 = load i32, ptr %12, align 4, !tbaa !8
  store i32 %155, ptr %13, align 4, !tbaa !8
  br label %156

156:                                              ; preds = %154, %150
  br label %157

157:                                              ; preds = %156, %125
  %158 = load i32, ptr %14, align 4, !tbaa !8
  store i32 %158, ptr %7, align 4, !tbaa !8
  %159 = load ptr, ptr %6, align 8, !tbaa !3
  %160 = load i32, ptr %7, align 4, !tbaa !8
  %161 = call i32 @cuddZddNextHigh(ptr noundef %159, i32 noundef %160)
  store i32 %161, ptr %11, align 4, !tbaa !8
  br label %22, !llvm.loop !76

162:                                              ; preds = %22
  store i32 1, ptr %5, align 4
  store i32 1, ptr %15, align 4
  br label %189

163:                                              ; preds = %138, %90, %84
  br label %164

164:                                              ; preds = %168, %163
  %165 = load ptr, ptr %9, align 8, !tbaa !70
  %166 = load ptr, ptr %165, align 8, !tbaa !57
  %167 = icmp ne ptr %166, null
  br i1 %167, label %168, label %188

168:                                              ; preds = %164
  %169 = load ptr, ptr %9, align 8, !tbaa !70
  %170 = load ptr, ptr %169, align 8, !tbaa !57
  %171 = getelementptr inbounds nuw %struct.Move, ptr %170, i32 0, i32 4
  %172 = load ptr, ptr %171, align 8, !tbaa !64
  store ptr %172, ptr %10, align 8, !tbaa !57
  %173 = load ptr, ptr %9, align 8, !tbaa !70
  %174 = load ptr, ptr %173, align 8, !tbaa !57
  %175 = getelementptr inbounds nuw %struct.DdNode, ptr %174, i32 0, i32 1
  store i32 0, ptr %175, align 4, !tbaa !65
  %176 = load ptr, ptr %6, align 8, !tbaa !3
  %177 = getelementptr inbounds nuw %struct.DdManager, ptr %176, i32 0, i32 48
  %178 = load ptr, ptr %177, align 8, !tbaa !66
  %179 = load ptr, ptr %9, align 8, !tbaa !70
  %180 = load ptr, ptr %179, align 8, !tbaa !57
  %181 = getelementptr inbounds nuw %struct.DdNode, ptr %180, i32 0, i32 2
  store ptr %178, ptr %181, align 8, !tbaa !67
  %182 = load ptr, ptr %9, align 8, !tbaa !70
  %183 = load ptr, ptr %182, align 8, !tbaa !57
  %184 = load ptr, ptr %6, align 8, !tbaa !3
  %185 = getelementptr inbounds nuw %struct.DdManager, ptr %184, i32 0, i32 48
  store ptr %183, ptr %185, align 8, !tbaa !66
  %186 = load ptr, ptr %10, align 8, !tbaa !57
  %187 = load ptr, ptr %9, align 8, !tbaa !70
  store ptr %186, ptr %187, align 8, !tbaa !57
  br label %164, !llvm.loop !77

188:                                              ; preds = %164
  store i32 0, ptr %5, align 4
  store i32 1, ptr %15, align 4
  br label %189

189:                                              ; preds = %188, %162, %149, %118
  call void @llvm.lifetime.end.p0(i64 4, ptr %14) #5
  call void @llvm.lifetime.end.p0(i64 4, ptr %13) #5
  call void @llvm.lifetime.end.p0(i64 4, ptr %12) #5
  call void @llvm.lifetime.end.p0(i64 4, ptr %11) #5
  call void @llvm.lifetime.end.p0(i64 8, ptr %10) #5
  %190 = load i32, ptr %5, align 4
  ret i32 %190
}