; Function Attrs: nounwind uwtable
define internal fastcc range(i32 0, 2) i32 @zddGroupSiftingDown(ptr noundef %0, i32 noundef %1, i32 noundef range(i32 0, -1) %2, ptr noundef nonnull captures(none) %3) unnamed_addr #0 {
  %5 = getelementptr inbounds nuw i8, ptr %0, i64 232
  %6 = load i32, ptr %5, align 8, !tbaa !41
  %7 = tail call i32 @cuddZddNextHigh(ptr noundef %0, i32 noundef %1) #9
  %.not80 = icmp sgt i32 %7, %2
  br i1 %.not80, label %.loopexit, label %.lr.ph

.lr.ph:                                           ; preds = %4
  %8 = getelementptr inbounds nuw i8, ptr %0, i64 160
  %9 = getelementptr inbounds nuw i8, ptr %0, i64 464
  br label %10

10:                                               ; preds = %.lr.ph, %54
  %.06783 = phi i32 [ %6, %.lr.ph ], [ %.2, %54 ]
  %.06882 = phi i32 [ %7, %.lr.ph ], [ %55, %54 ]
  %.07081 = phi i32 [ %1, %.lr.ph ], [ %.0, %54 ]
  %11 = load ptr, ptr %8, align 8, !tbaa !31
  %12 = sext i32 %.06882 to i64
  %13 = getelementptr inbounds %struct.DdSubtable, ptr %11, i64 %12, i32 6
  %14 = load i32, ptr %13, align 4, !tbaa !32
  br label %15

15:                                               ; preds = %15, %10
  %.0 = phi i32 [ %14, %10 ], [ %18, %15 ]
  %16 = sext i32 %.0 to i64
  %17 = getelementptr inbounds %struct.DdSubtable, ptr %11, i64 %16, i32 6
  %18 = load i32, ptr %17, align 4, !tbaa !32
  %.not76 = icmp eq i32 %18, %.06882
  br i1 %.not76, label %19, label %15, !llvm.loop !67

19:                                               ; preds = %15
  %20 = sext i32 %.07081 to i64
  %21 = getelementptr inbounds %struct.DdSubtable, ptr %11, i64 %20, i32 6
  %22 = load i32, ptr %21, align 4, !tbaa !32
  %23 = icmp eq i32 %22, %.07081
  %24 = icmp eq i32 %14, %.06882
  %or.cond = select i1 %23, i1 %24, i1 false
  br i1 %or.cond, label %25, label %44

25:                                               ; preds = %19
  %26 = tail call i32 @cuddZddSwapInPlace(ptr noundef %0, i32 noundef %.07081, i32 noundef %.06882) #9
  %27 = icmp eq i32 %26, 0
  br i1 %27, label %56, label %28

28:                                               ; preds = %25
  %29 = tail call ptr @cuddDynamicAllocNode(ptr noundef %0) #9
  %30 = icmp eq ptr %29, null
  br i1 %30, label %56, label %31

31:                                               ; preds = %28
  store i32 %.07081, ptr %29, align 8, !tbaa !54
  %32 = getelementptr inbounds nuw i8, ptr %29, i64 4
  store i32 %.06882, ptr %32, align 4, !tbaa !51
  %33 = getelementptr inbounds nuw i8, ptr %29, i64 8
  store i32 0, ptr %33, align 8, !tbaa !68
  %34 = getelementptr inbounds nuw i8, ptr %29, i64 12
  store i32 %26, ptr %34, align 4, !tbaa !69
  %35 = load ptr, ptr %3, align 8, !tbaa !49
  %36 = getelementptr inbounds nuw i8, ptr %29, i64 16
  store ptr %35, ptr %36, align 8, !tbaa !57
  store ptr %29, ptr %3, align 8, !tbaa !49
  %37 = sitofp i32 %26 to double
  %38 = sitofp i32 %.06783 to double
  %39 = load double, ptr %9, align 8, !tbaa !70
  %40 = fmul double %39, %38
  %41 = fcmp olt double %40, %37
  br i1 %41, label %.loopexit, label %42

42:                                               ; preds = %31
  %spec.select = tail call i32 @llvm.smin.i32(i32 %26, i32 %.06783)
  %43 = tail call i32 @cuddZddNextHigh(ptr noundef nonnull %0, i32 noundef %.06882) #9
  br label %54

44:                                               ; preds = %19
  %45 = tail call fastcc i32 @zddGroupMove(ptr noundef %0, i32 noundef %.07081, i32 noundef %.06882, ptr noundef %3)
  %46 = icmp eq i32 %45, 0
  br i1 %46, label %56, label %47

47:                                               ; preds = %44
  %48 = sitofp i32 %45 to double
  %49 = sitofp i32 %.06783 to double
  %50 = load double, ptr %9, align 8, !tbaa !70
  %51 = fmul double %50, %49
  %52 = fcmp olt double %51, %48
  br i1 %52, label %.loopexit, label %53

53:                                               ; preds = %47
  %spec.select78 = tail call i32 @llvm.smin.i32(i32 %45, i32 %.06783)
  br label %54

54:                                               ; preds = %53, %42
  %.2 = phi i32 [ %spec.select, %42 ], [ %spec.select78, %53 ]
  %55 = tail call i32 @cuddZddNextHigh(ptr noundef nonnull %0, i32 noundef %.0) #9
  %.not = icmp sgt i32 %55, %2
  br i1 %.not, label %.loopexit, label %10, !llvm.loop !71

56:                                               ; preds = %44, %28, %25
  %.pr = load ptr, ptr %3, align 8, !tbaa !49
  %.not7786 = icmp eq ptr %.pr, null
  br i1 %.not7786, label %.loopexit, label %.lr.ph87

.lr.ph87:                                         ; preds = %56
  %57 = getelementptr inbounds nuw i8, ptr %0, i64 400
  %.promoted = load ptr, ptr %57, align 8, !tbaa !56
  br label %58

58:                                               ; preds = %.lr.ph87, %58
  %59 = phi ptr [ %.promoted, %.lr.ph87 ], [ %60, %58 ]
  %60 = phi ptr [ %.pr, %.lr.ph87 ], [ %62, %58 ]
  %61 = getelementptr inbounds nuw i8, ptr %60, i64 16
  %62 = load ptr, ptr %61, align 8, !tbaa !57
  %63 = getelementptr inbounds nuw i8, ptr %60, i64 4
  store i32 0, ptr %63, align 4, !tbaa !58
  %64 = getelementptr inbounds nuw i8, ptr %60, i64 8
  store ptr %59, ptr %64, align 8, !tbaa !59
  store ptr %62, ptr %3, align 8, !tbaa !49
  %.not77 = icmp eq ptr %62, null
  br i1 %.not77, label %..loopexit_crit_edge, label %58, !llvm.loop !72

..loopexit_crit_edge:                             ; preds = %58
  store ptr %60, ptr %57, align 8, !tbaa !56
  br label %.loopexit

.loopexit:                                        ; preds = %31, %47, %54, %4, %56, %..loopexit_crit_edge
  %.069 = phi i32 [ 0, %..loopexit_crit_edge ], [ 0, %56 ], [ 1, %4 ], [ 1, %54 ], [ 1, %47 ], [ 1, %31 ]
  ret i32 %.069
}